; Function Attrs: mustprogress uwtable
define noundef double @_ZNK8QuantLib11HaganPricer12floorletRateEd(ptr noundef nonnull align 8 dereferenceable(200) %this, double noundef %effectiveFloor) unnamed_addr #7 align 2 {
entry:
  %vtable = load ptr, ptr %this, align 8, !tbaa !35
  %vfn = getelementptr inbounds i8, ptr %vtable, i64 48
  %0 = load ptr, ptr %vfn, align 8
  %call = tail call noundef double %0(ptr noundef nonnull align 8 dereferenceable(200) %this, double noundef %effectiveFloor)
  %coupon_ = getelementptr inbounds nuw i8, ptr %this, i64 72
  %1 = load ptr, ptr %coupon_, align 8, !tbaa !87
  %call2 = tail call noundef double @_ZNK8QuantLib6Coupon13accrualPeriodEv(ptr noundef nonnull align 8 dereferenceable(88) %1)
  %discount_ = getelementptr inbounds nuw i8, ptr %this, i64 104
  %2 = load double, ptr %discount_, align 8, !tbaa !107
  %mul = fmul double %call2, %2
  %div = fdiv double %call, %mul
  ret double %div
}